; Function Attrs: mustprogress nofree nounwind willreturn memory(read) uwtable
define internal i32 @module_name_cmp(ptr nocapture noundef readonly %0, ptr nocapture noundef readonly %1) #5 {
  %3 = load ptr, ptr %0, align 8
  %4 = getelementptr inbounds i8, ptr %3, i64 32
  %5 = load ptr, ptr %4, align 8
  %6 = load ptr, ptr %1, align 8
  %7 = getelementptr inbounds i8, ptr %6, i64 32
  %8 = load ptr, ptr %7, align 8
  %9 = tail call i32 @strcasecmp(ptr noundef %5, ptr noundef %8) #13
  ret i32 %9
}